target datalayout = "e-m:e-p270:32:32-p271:32:32-p272:64:64-i64:64-i128:128-f80:128-n8:16:32:64-S128"
target triple = "x86_64-pc-linux-gnu"

%struct._psqlSettings = type { ptr, i32, ptr, i8, ptr, ptr, %struct.printQueryOpt, ptr, ptr, ptr, i8, i8, i32, i32, ptr, ptr, i8, [4 x ptr], i8, i32, ptr, i8, i32, ptr, ptr, i64, i64, i8, ptr, ptr, ptr, i8, i8, i8, i8, i8, i8, i8, i32, i32, i32, i32, i32, i32, i32, i32, ptr, ptr, ptr, i32, i8, i32 }
%struct.printQueryOpt = type { %struct.printTableOpt, ptr, ptr, ptr, i8, ptr, i32 }
%struct.printTableOpt = type { i32, i16, i32, i32, i16, i16, i32, i8, i8, i8, i8, i64, ptr, %struct.separator, %struct.separator, [2 x i8], i8, ptr, i32, i32, i32, i32, i32, i32 }
%struct.separator = type { ptr, i8 }
%struct._hist_entry = type { ptr, ptr, ptr }

@useReadline = internal global i8 0, align 1
@useHistory = internal global i8 0, align 1
@pset = external global %struct._psqlSettings, align 8
@history_lines_added = internal global i32 0, align 4
@.str.2 = private unnamed_addr constant [14 x i8] c"comment-begin\00", align 1
@.str.3 = private unnamed_addr constant [4 x i8] c"-- \00", align 1
@.str.4 = private unnamed_addr constant [9 x i8] c"HISTFILE\00", align 1
@.str.5 = private unnamed_addr constant [13 x i8] c"PSQL_HISTORY\00", align 1
@.str.6 = private unnamed_addr constant [6 x i8] c"%s/%s\00", align 1
@.str.7 = private unnamed_addr constant [14 x i8] c".psql_history\00", align 1
@psql_history = internal global ptr null, align 8

; Function Attrs: nounwind uwtable
define internal void @decode_history() #0 {
  %1 = alloca ptr, align 8
  %2 = alloca i8, align 1
  %3 = alloca ptr, align 8
  br label %4

4:                                                ; preds = %0
  call void @llvm.lifetime.start.p0(i64 8, ptr %1) #5
  call void @llvm.lifetime.start.p0(i64 1, ptr %2) #5
  %5 = call i32 @history_set_pos(i32 noundef 0)
  %6 = call ptr @previous_history()
  %7 = icmp ne ptr %6, null
  %8 = zext i1 %7 to i8
  store i8 %8, ptr %2, align 1
  %9 = call i32 @history_set_pos(i32 noundef 0)
  %10 = call ptr @current_history()
  store ptr %10, ptr %1, align 8
  br label %11

11:                                               ; preds = %41, %4
  %12 = load ptr, ptr %1, align 8
  %13 = icmp ne ptr %12, null
  br i1 %13, label %14, label %43

14:                                               ; preds = %11
  call void @llvm.lifetime.start.p0(i64 8, ptr %3) #5
  %15 = load ptr, ptr %1, align 8
  %16 = getelementptr inbounds nuw %struct._hist_entry, ptr %15, i32 0, i32 0
  %17 = load ptr, ptr %16, align 8
  store ptr %17, ptr %3, align 8
  br label %18

18:                                               ; preds = %30, %14
  %19 = load ptr, ptr %3, align 8
  %20 = load i8, ptr %19, align 1
  %21 = icmp ne i8 %20, 0
  br i1 %21, label %22, label %33

22:                                               ; preds = %18
  %23 = load ptr, ptr %3, align 8
  %24 = load i8, ptr %23, align 1
  %25 = sext i8 %24 to i32
  %26 = icmp eq i32 %25, 1
  br i1 %26, label %27, label %29

27:                                               ; preds = %22
  %28 = load ptr, ptr %3, align 8
  store i8 10, ptr %28, align 1
  br label %29

29:                                               ; preds = %27, %22
  br label %30

30:                                               ; preds = %29
  %31 = load ptr, ptr %3, align 8
  %32 = getelementptr inbounds nuw i8, ptr %31, i32 1
  store ptr %32, ptr %3, align 8
  br label %18, !llvm.loop !8

33:                                               ; preds = %18
  call void @llvm.lifetime.end.p0(i64 8, ptr %3) #5
  br label %34

34:                                               ; preds = %33
  %35 = load i8, ptr %2, align 1, !range !4, !noundef !5
  %36 = trunc i8 %35 to i1
  br i1 %36, label %37, label %39

37:                                               ; preds = %34
  %38 = call ptr @previous_history()
  br label %41

39:                                               ; preds = %34
  %40 = call ptr @next_history()
  br label %41

41:                                               ; preds = %39, %37
  %42 = phi ptr [ %38, %37 ], [ %40, %39 ]
  store ptr %42, ptr %1, align 8
  br label %11, !llvm.loop !9

43:                                               ; preds = %11
  call void @llvm.lifetime.end.p0(i64 1, ptr %2) #5
  call void @llvm.lifetime.end.p0(i64 8, ptr %1) #5
  br label %44

44:                                               ; preds = %43
  ret void
}

; Function Attrs: nounwind uwtable
define dso_local void @initializeInput(i32 noundef %0) #0 {
  %2 = alloca i32, align 4
  %3 = alloca ptr, align 8
  %4 = alloca [1024 x i8], align 16
  %5 = alloca ptr, align 8
  store i32 %0, ptr %2, align 4
  %6 = load i32, ptr %2, align 4
  %7 = and i32 %6, 1
  %8 = icmp ne i32 %7, 0
  br i1 %8, label %9, label %47

9:                                                ; preds = %1
  call void @llvm.lifetime.start.p0(i64 8, ptr %3) #5
  call void @llvm.lifetime.start.p0(i64 1024, ptr %4) #5
  store i8 1, ptr @useReadline, align 1
  call void @initialize_readline()
  %10 = call i32 @rl_variable_bind(ptr noundef @.str.2, ptr noundef @.str.3)
  %11 = call i32 @rl_initialize()
  store i8 1, ptr @useHistory, align 1
  call void @using_history()
  store i32 0, ptr @history_lines_added, align 4
  %12 = load ptr, ptr getelementptr inbounds nuw (%struct._psqlSettings, ptr @pset, i32 0, i32 29), align 8
  %13 = call ptr @GetVariable(ptr noundef %12, ptr noundef @.str.4)
  store ptr %13, ptr %3, align 8
  %14 = load ptr, ptr %3, align 8
  %15 = icmp eq ptr %14, null
  br i1 %15, label %16, label %27

16:                                               ; preds = %9
  call void @llvm.lifetime.start.p0(i64 8, ptr %5) #5
  %17 = call ptr @getenv(ptr noundef @.str.5) #5
  store ptr %17, ptr %5, align 8
  %18 = load ptr, ptr %5, align 8
  %19 = icmp ne ptr %18, null
  br i1 %19, label %20, label %26

20:                                               ; preds = %16
  %21 = load ptr, ptr %5, align 8
  %22 = call i64 @strlen(ptr noundef %21) #6
  %23 = icmp ugt i64 %22, 0
  br i1 %23, label %24, label %26

24:                                               ; preds = %20
  %25 = load ptr, ptr %5, align 8
  store ptr %25, ptr %3, align 8
  br label %26

26:                                               ; preds = %24, %20, %16
  call void @llvm.lifetime.end.p0(i64 8, ptr %5) #5
  br label %27

27:                                               ; preds = %26, %9
  %28 = load ptr, ptr %3, align 8
  %29 = icmp eq ptr %28, null
  br i1 %29, label %30, label %37

30:                                               ; preds = %27
  %31 = getelementptr inbounds [1024 x i8], ptr %4, i64 0, i64 0
  %32 = call zeroext i1 @get_home_path(ptr noundef %31)
  br i1 %32, label %33, label %36

33:                                               ; preds = %30
  %34 = getelementptr inbounds [1024 x i8], ptr %4, i64 0, i64 0
  %35 = call ptr (ptr, ...) @psprintf(ptr noundef @.str.6, ptr noundef %34, ptr noundef @.str.7)
  store ptr %35, ptr @psql_history, align 8
  br label %36

36:                                               ; preds = %33, %30
  br label %40

37:                                               ; preds = %27
  %38 = load ptr, ptr %3, align 8
  %39 = call ptr @pg_strdup(ptr noundef %38)
  store ptr %39, ptr @psql_history, align 8
  call void @expand_tilde(ptr noundef @psql_history)
  br label %40

40:                                               ; preds = %37, %36
  %41 = load ptr, ptr @psql_history, align 8
  %42 = icmp ne ptr %41, null
  br i1 %42, label %43, label %46

43:                                               ; preds = %40
  %44 = load ptr, ptr @psql_history, align 8
  %45 = call i32 @read_history(ptr noundef %44)
  call void @decode_history()
  br label %46

46:                                               ; preds = %43, %40
  call void @llvm.lifetime.end.p0(i64 1024, ptr %4) #5
  call void @llvm.lifetime.end.p0(i64 8, ptr %3) #5
  br label %47

47:                                               ; preds = %46, %1
  %48 = call i32 @atexit(ptr noundef @finishInput) #5
  ret void
}