; Function Attrs: nounwind uwtable
define dso_local void @initializeInput(i32 noundef %0) local_unnamed_addr #0 {
  %2 = alloca [1024 x i8], align 16
  %3 = and i32 %0, 1
  %.not = icmp eq i32 %3, 0
  br i1 %.not, label %42, label %4

4:                                                ; preds = %1
  call void @llvm.lifetime.start.p0(i64 1024, ptr nonnull %2) #9
  store i1 true, ptr @useReadline, align 1
  tail call void @initialize_readline() #9
  %5 = tail call i32 @rl_variable_bind(ptr noundef nonnull @.str.2, ptr noundef nonnull @.str.3) #9
  %6 = tail call i32 @rl_initialize() #9
  store i1 true, ptr @useHistory, align 1
  tail call void @using_history() #9
  store i32 0, ptr @history_lines_added, align 4
  %7 = load ptr, ptr getelementptr inbounds nuw (i8, ptr @pset, i64 384), align 8
  %8 = tail call ptr @GetVariable(ptr noundef %7, ptr noundef nonnull @.str.4) #9
  %9 = icmp eq ptr %8, null
  br i1 %9, label %10, label %16

10:                                               ; preds = %4
  %11 = tail call ptr @getenv(ptr noundef nonnull @.str.5) #9
  %.not10 = icmp eq ptr %11, null
  br i1 %.not10, label %select.unfold, label %12

12:                                               ; preds = %10
  %char0 = load i8, ptr %11, align 1
  %.not11 = icmp eq i8 %char0, 0
  br i1 %.not11, label %select.unfold, label %16

select.unfold:                                    ; preds = %12, %10
  %13 = call zeroext i1 @get_home_path(ptr noundef nonnull %2) #9
  br i1 %13, label %14, label %thread-pre-split

14:                                               ; preds = %select.unfold
  %15 = call ptr (ptr, ...) @psprintf(ptr noundef nonnull @.str.6, ptr noundef nonnull %2, ptr noundef nonnull @.str.7) #9
  store ptr %15, ptr @psql_history, align 8
  br label %18

16:                                               ; preds = %4, %12
  %.0 = phi ptr [ %8, %4 ], [ %11, %12 ]
  %17 = tail call ptr @pg_strdup(ptr noundef nonnull %.0) #9
  store ptr %17, ptr @psql_history, align 8
  tail call void @expand_tilde(ptr noundef nonnull @psql_history) #9
  br label %thread-pre-split

thread-pre-split:                                 ; preds = %16, %select.unfold
  %.pr = load ptr, ptr @psql_history, align 8
  br label %18

18:                                               ; preds = %thread-pre-split, %14
  %19 = phi ptr [ %.pr, %thread-pre-split ], [ %15, %14 ]
  %.not12 = icmp eq ptr %19, null
  br i1 %.not12, label %decode_history.exit, label %20

20:                                               ; preds = %18
  %21 = call i32 @read_history(ptr noundef nonnull %19) #9
  %22 = call i32 @history_set_pos(i32 noundef 0) #9
  %23 = call ptr @previous_history() #9
  %24 = call i32 @history_set_pos(i32 noundef 0) #9
  %25 = call ptr @current_history() #9
  %.not810.i = icmp eq ptr %25, null
  br i1 %.not810.i, label %decode_history.exit, label %.lr.ph.i

.lr.ph.i:                                         ; preds = %20
  %.not.i = icmp eq ptr %23, null
  br i1 %.not.i, label %.lr.ph.split.us.i, label %.lr.ph.split.i

.lr.ph.split.us.i:                                ; preds = %.lr.ph.i, %30
  %.0611.us.i = phi ptr [ %31, %30 ], [ %25, %.lr.ph.i ]
  %26 = load ptr, ptr %.0611.us.i, align 8
  br label %27

27:                                               ; preds = %32, %.lr.ph.split.us.i
  %.0.us.i = phi ptr [ %26, %.lr.ph.split.us.i ], [ %33, %32 ]
  %28 = load i8, ptr %.0.us.i, align 1
  switch i8 %28, label %32 [
    i8 0, label %30
    i8 1, label %29
  ]

29:                                               ; preds = %27
  store i8 10, ptr %.0.us.i, align 1
  br label %32

30:                                               ; preds = %27
  %31 = call ptr @next_history() #9
  %.not8.us.i = icmp eq ptr %31, null
  br i1 %.not8.us.i, label %decode_history.exit, label %.lr.ph.split.us.i, !llvm.loop !6

32:                                               ; preds = %29, %27
  %33 = getelementptr inbounds nuw i8, ptr %.0.us.i, i64 1
  br label %27, !llvm.loop !7

.lr.ph.split.i:                                   ; preds = %.lr.ph.i, %40
  %.0611.i = phi ptr [ %41, %40 ], [ %25, %.lr.ph.i ]
  %34 = load ptr, ptr %.0611.i, align 8
  br label %35

35:                                               ; preds = %38, %.lr.ph.split.i
  %.0.i = phi ptr [ %34, %.lr.ph.split.i ], [ %39, %38 ]
  %36 = load i8, ptr %.0.i, align 1
  switch i8 %36, label %38 [
    i8 0, label %40
    i8 1, label %37
  ]

37:                                               ; preds = %35
  store i8 10, ptr %.0.i, align 1
  br label %38

38:                                               ; preds = %37, %35
  %39 = getelementptr inbounds nuw i8, ptr %.0.i, i64 1
  br label %35, !llvm.loop !7

40:                                               ; preds = %35
  %41 = call ptr @previous_history() #9
  %.not8.i = icmp eq ptr %41, null
  br i1 %.not8.i, label %decode_history.exit, label %.lr.ph.split.i, !llvm.loop !6

decode_history.exit:                              ; preds = %40, %30, %20, %18
  call void @llvm.lifetime.end.p0(i64 1024, ptr nonnull %2) #9
  br label %42

42:                                               ; preds = %decode_history.exit, %1
  %43 = call i32 @atexit(ptr noundef nonnull @finishInput) #9
  ret void
}